target datalayout = "e-m:e-p270:32:32-p271:32:32-p272:64:64-i64:64-i128:128-f80:128-n8:16:32:64-S128"
target triple = "x86_64-pc-linux-gnu"

%struct.TCGOp = type { i32, i32, %union.anon, [2 x i32], [0 x i64] }
%union.anon = type { %struct.QTailQLink }
%struct.QTailQLink = type { ptr, ptr }

; Function Attrs: noinline nounwind sspstrong uwtable
define dso_local ptr @tcg_gen_op6(i32 noundef %0, i32 noundef %1, i64 noundef %2, i64 noundef %3, i64 noundef %4, i64 noundef %5, i64 noundef %6, i64 noundef %7) #0 {
  %9 = alloca i32, align 4
  %10 = alloca i32, align 4
  %11 = alloca i64, align 8
  %12 = alloca i64, align 8
  %13 = alloca i64, align 8
  %14 = alloca i64, align 8
  %15 = alloca i64, align 8
  %16 = alloca i64, align 8
  %17 = alloca ptr, align 8
  store i32 %0, ptr %9, align 4
  store i32 %1, ptr %10, align 4
  store i64 %2, ptr %11, align 8
  store i64 %3, ptr %12, align 8
  store i64 %4, ptr %13, align 8
  store i64 %5, ptr %14, align 8
  store i64 %6, ptr %15, align 8
  store i64 %7, ptr %16, align 8
  call void @llvm.lifetime.start.p0(i64 8, ptr %17) #7
  %18 = load i32, ptr %9, align 4
  %19 = call ptr @tcg_emit_op(i32 noundef %18, i32 noundef 6)
  store ptr %19, ptr %17, align 8
  %20 = load i32, ptr %10, align 4
  %21 = load ptr, ptr %17, align 8
  %22 = load i32, ptr %21, align 8
  %23 = and i32 %20, 255
  %24 = shl i32 %23, 16
  %25 = and i32 %22, -16711681
  %26 = or i32 %25, %24
  store i32 %26, ptr %21, align 8
  %27 = load i64, ptr %11, align 8
  %28 = load ptr, ptr %17, align 8
  %29 = getelementptr inbounds nuw %struct.TCGOp, ptr %28, i32 0, i32 4
  %30 = getelementptr inbounds [0 x i64], ptr %29, i64 0, i64 0
  store i64 %27, ptr %30, align 8
  %31 = load i64, ptr %12, align 8
  %32 = load ptr, ptr %17, align 8
  %33 = getelementptr inbounds nuw %struct.TCGOp, ptr %32, i32 0, i32 4
  %34 = getelementptr inbounds [0 x i64], ptr %33, i64 0, i64 1
  store i64 %31, ptr %34, align 8
  %35 = load i64, ptr %13, align 8
  %36 = load ptr, ptr %17, align 8
  %37 = getelementptr inbounds nuw %struct.TCGOp, ptr %36, i32 0, i32 4
  %38 = getelementptr inbounds [0 x i64], ptr %37, i64 0, i64 2
  store i64 %35, ptr %38, align 8
  %39 = load i64, ptr %14, align 8
  %40 = load ptr, ptr %17, align 8
  %41 = getelementptr inbounds nuw %struct.TCGOp, ptr %40, i32 0, i32 4
  %42 = getelementptr inbounds [0 x i64], ptr %41, i64 0, i64 3
  store i64 %39, ptr %42, align 8
  %43 = load i64, ptr %15, align 8
  %44 = load ptr, ptr %17, align 8
  %45 = getelementptr inbounds nuw %struct.TCGOp, ptr %44, i32 0, i32 4
  %46 = getelementptr inbounds [0 x i64], ptr %45, i64 0, i64 4
  store i64 %43, ptr %46, align 8
  %47 = load i64, ptr %16, align 8
  %48 = load ptr, ptr %17, align 8
  %49 = getelementptr inbounds nuw %struct.TCGOp, ptr %48, i32 0, i32 4
  %50 = getelementptr inbounds [0 x i64], ptr %49, i64 0, i64 5
  store i64 %47, ptr %50, align 8
  %51 = load ptr, ptr %17, align 8
  call void @llvm.lifetime.end.p0(i64 8, ptr %17) #7
  ret ptr %51
}