; Function Attrs: noinline nounwind sspstrong uwtable
define dso_local noundef ptr @tcg_gen_op6(i32 noundef %0, i32 noundef %1, i64 noundef %2, i64 noundef %3, i64 noundef %4, i64 noundef %5, i64 noundef %6, i64 noundef %7) local_unnamed_addr #0 {
  %9 = tail call ptr @tcg_emit_op(i32 noundef %0, i32 noundef 6) #6
  %10 = load i32, ptr %9, align 8
  %11 = shl i32 %1, 16
  %12 = and i32 %11, 16711680
  %13 = and i32 %10, -16711681
  %14 = or disjoint i32 %13, %12
  store i32 %14, ptr %9, align 8
  %15 = getelementptr inbounds nuw i8, ptr %9, i64 32
  store i64 %2, ptr %15, align 8
  %16 = getelementptr inbounds nuw i8, ptr %9, i64 40
  store i64 %3, ptr %16, align 8
  %17 = getelementptr inbounds nuw i8, ptr %9, i64 48
  store i64 %4, ptr %17, align 8
  %18 = getelementptr inbounds nuw i8, ptr %9, i64 56
  store i64 %5, ptr %18, align 8
  %19 = getelementptr inbounds nuw i8, ptr %9, i64 64
  store i64 %6, ptr %19, align 8
  %20 = getelementptr inbounds nuw i8, ptr %9, i64 72
  store i64 %7, ptr %20, align 8
  ret ptr %9
}